target datalayout = "e-m:e-p270:32:32-p271:32:32-p272:64:64-i64:64-i128:128-f80:128-n8:16:32:64-S128"
target triple = "x86_64-pc-linux-gnu"

%struct.SurfaceDataRasInfo = type { %struct.SurfaceDataBounds, ptr, i32, i32, i32, i32, ptr, ptr, ptr, ptr, ptr, ptr, i32, %union.anon.0 }
%struct.SurfaceDataBounds = type { i32, i32, i32, i32 }
%union.anon.0 = type { ptr, [56 x i8] }
%struct._CompositeInfo = type { i32, %union.anon.1, i32 }
%union.anon.1 = type { float }

; Function Attrs: nounwind uwtable
define hidden void @AnyByteXorLine(ptr noundef %0, i32 noundef %1, i32 noundef %2, i32 noundef %3, i32 noundef %4, i32 noundef %5, i32 noundef %6, i32 noundef %7, i32 noundef %8, i32 noundef %9, ptr noundef %10, ptr noundef %11) #0 {
  %13 = alloca ptr, align 8
  %14 = alloca i32, align 4
  %15 = alloca i32, align 4
  %16 = alloca i32, align 4
  %17 = alloca i32, align 4
  %18 = alloca i32, align 4
  %19 = alloca i32, align 4
  %20 = alloca i32, align 4
  %21 = alloca i32, align 4
  %22 = alloca i32, align 4
  %23 = alloca ptr, align 8
  %24 = alloca ptr, align 8
  %25 = alloca i32, align 4
  %26 = alloca i32, align 4
  %27 = alloca i32, align 4
  %28 = alloca ptr, align 8
  %29 = alloca i32, align 4
  %30 = alloca i32, align 4
  store ptr %0, ptr %13, align 8
  store i32 %1, ptr %14, align 4
  store i32 %2, ptr %15, align 4
  store i32 %3, ptr %16, align 4
  store i32 %4, ptr %17, align 4
  store i32 %5, ptr %18, align 4
  store i32 %6, ptr %19, align 4
  store i32 %7, ptr %20, align 4
  store i32 %8, ptr %21, align 4
  store i32 %9, ptr %22, align 4
  store ptr %10, ptr %23, align 8
  store ptr %11, ptr %24, align 8
  %31 = load ptr, ptr %24, align 8
  %32 = getelementptr inbounds %struct._CompositeInfo, ptr %31, i32 0, i32 1
  %33 = load i32, ptr %32, align 4
  store i32 %33, ptr %25, align 4
  %34 = load ptr, ptr %24, align 8
  %35 = getelementptr inbounds %struct._CompositeInfo, ptr %34, i32 0, i32 2
  %36 = load i32, ptr %35, align 4
  store i32 %36, ptr %26, align 4
  %37 = load ptr, ptr %13, align 8
  %38 = getelementptr inbounds %struct.SurfaceDataRasInfo, ptr %37, i32 0, i32 4
  %39 = load i32, ptr %38, align 8
  store i32 %39, ptr %27, align 4
  %40 = load ptr, ptr %13, align 8
  %41 = getelementptr inbounds %struct.SurfaceDataRasInfo, ptr %40, i32 0, i32 1
  %42 = load ptr, ptr %41, align 8
  %43 = ptrtoint ptr %42 to i64
  %44 = load i32, ptr %15, align 4
  %45 = sext i32 %44 to i64
  %46 = load i32, ptr %27, align 4
  %47 = sext i32 %46 to i64
  %48 = mul nsw i64 %45, %47
  %49 = load i32, ptr %14, align 4
  %50 = sext i32 %49 to i64
  %51 = mul nsw i64 %50, 1
  %52 = add nsw i64 %48, %51
  %53 = add nsw i64 %43, %52
  %54 = inttoptr i64 %53 to ptr
  store ptr %54, ptr %28, align 8
  %55 = load i32, ptr %19, align 4
  %56 = and i32 %55, 1
  %57 = icmp ne i32 %56, 0
  br i1 %57, label %58, label %59

58:                                               ; preds = %12
  br label %77

59:                                               ; preds = %12
  %60 = load i32, ptr %19, align 4
  %61 = and i32 %60, 2
  %62 = icmp ne i32 %61, 0
  br i1 %62, label %63, label %64

63:                                               ; preds = %59
  br label %75

64:                                               ; preds = %59
  %65 = load i32, ptr %19, align 4
  %66 = and i32 %65, 4
  %67 = icmp ne i32 %66, 0
  br i1 %67, label %68, label %70

68:                                               ; preds = %64
  %69 = load i32, ptr %27, align 4
  br label %73

70:                                               ; preds = %64
  %71 = load i32, ptr %27, align 4
  %72 = sub nsw i32 0, %71
  br label %73

73:                                               ; preds = %70, %68
  %74 = phi i32 [ %69, %68 ], [ %72, %70 ]
  br label %75

75:                                               ; preds = %73, %63
  %76 = phi i32 [ -1, %63 ], [ %74, %73 ]
  br label %77

77:                                               ; preds = %75, %58
  %78 = phi i32 [ 1, %58 ], [ %76, %75 ]
  store i32 %78, ptr %29, align 4
  %79 = load i32, ptr %21, align 4
  %80 = and i32 %79, 1
  %81 = icmp ne i32 %80, 0
  br i1 %81, label %82, label %83

82:                                               ; preds = %77
  br label %108

83:                                               ; preds = %77
  %84 = load i32, ptr %21, align 4
  %85 = and i32 %84, 2
  %86 = icmp ne i32 %85, 0
  br i1 %86, label %87, label %88

87:                                               ; preds = %83
  br label %106

88:                                               ; preds = %83
  %89 = load i32, ptr %21, align 4
  %90 = and i32 %89, 4
  %91 = icmp ne i32 %90, 0
  br i1 %91, label %92, label %94

92:                                               ; preds = %88
  %93 = load i32, ptr %27, align 4
  br label %104

94:                                               ; preds = %88
  %95 = load i32, ptr %21, align 4
  %96 = and i32 %95, 8
  %97 = icmp ne i32 %96, 0
  br i1 %97, label %98, label %101

98:                                               ; preds = %94
  %99 = load i32, ptr %27, align 4
  %100 = sub nsw i32 0, %99
  br label %102

101:                                              ; preds = %94
  br label %102

102:                                              ; preds = %101, %98
  %103 = phi i32 [ %100, %98 ], [ 0, %101 ]
  br label %104

104:                                              ; preds = %102, %92
  %105 = phi i32 [ %93, %92 ], [ %103, %102 ]
  br label %106

106:                                              ; preds = %104, %87
  %107 = phi i32 [ -1, %87 ], [ %105, %104 ]
  br label %108

108:                                              ; preds = %106, %82
  %109 = phi i32 [ 1, %82 ], [ %107, %106 ]
  store i32 %109, ptr %30, align 4
  %110 = load i32, ptr %29, align 4
  %111 = load i32, ptr %30, align 4
  %112 = add nsw i32 %111, %110
  store i32 %112, ptr %30, align 4
  %113 = load i32, ptr %20, align 4
  %114 = icmp eq i32 %113, 0
  br i1 %114, label %115, label %140

115:                                              ; preds = %108
  br label %116

116:                                              ; preds = %135, %115
  %117 = load i32, ptr %16, align 4
  %118 = load i32, ptr %25, align 4
  %119 = xor i32 %117, %118
  %120 = load i32, ptr %26, align 4
  %121 = xor i32 %120, -1
  %122 = and i32 %119, %121
  %123 = load ptr, ptr %28, align 8
  %124 = getelementptr inbounds i8, ptr %123, i64 0
  %125 = load i8, ptr %124, align 1
  %126 = sext i8 %125 to i32
  %127 = xor i32 %126, %122
  %128 = trunc i32 %127 to i8
  store i8 %128, ptr %124, align 1
  %129 = load ptr, ptr %28, align 8
  %130 = ptrtoint ptr %129 to i64
  %131 = load i32, ptr %29, align 4
  %132 = sext i32 %131 to i64
  %133 = add nsw i64 %130, %132
  %134 = inttoptr i64 %133 to ptr
  store ptr %134, ptr %28, align 8
  br label %135

135:                                              ; preds = %116
  %136 = load i32, ptr %17, align 4
  %137 = add nsw i32 %136, -1
  store i32 %137, ptr %17, align 4
  %138 = icmp sgt i32 %137, 0
  br i1 %138, label %116, label %139, !llvm.loop !21

139:                                              ; preds = %135
  br label %182

140:                                              ; preds = %108
  br label %141

141:                                              ; preds = %177, %140
  %142 = load i32, ptr %16, align 4
  %143 = load i32, ptr %25, align 4
  %144 = xor i32 %142, %143
  %145 = load i32, ptr %26, align 4
  %146 = xor i32 %145, -1
  %147 = and i32 %144, %146
  %148 = load ptr, ptr %28, align 8
  %149 = getelementptr inbounds i8, ptr %148, i64 0
  %150 = load i8, ptr %149, align 1
  %151 = sext i8 %150 to i32
  %152 = xor i32 %151, %147
  %153 = trunc i32 %152 to i8
  store i8 %153, ptr %149, align 1
  %154 = load i32, ptr %18, align 4
  %155 = icmp slt i32 %154, 0
  br i1 %155, label %156, label %166

156:                                              ; preds = %141
  %157 = load ptr, ptr %28, align 8
  %158 = ptrtoint ptr %157 to i64
  %159 = load i32, ptr %29, align 4
  %160 = sext i32 %159 to i64
  %161 = add nsw i64 %158, %160
  %162 = inttoptr i64 %161 to ptr
  store ptr %162, ptr %28, align 8
  %163 = load i32, ptr %20, align 4
  %164 = load i32, ptr %18, align 4
  %165 = add nsw i32 %164, %163
  store i32 %165, ptr %18, align 4
  br label %176

166:                                              ; preds = %141
  %167 = load ptr, ptr %28, align 8
  %168 = ptrtoint ptr %167 to i64
  %169 = load i32, ptr %30, align 4
  %170 = sext i32 %169 to i64
  %171 = add nsw i64 %168, %170
  %172 = inttoptr i64 %171 to ptr
  store ptr %172, ptr %28, align 8
  %173 = load i32, ptr %22, align 4
  %174 = load i32, ptr %18, align 4
  %175 = sub nsw i32 %174, %173
  store i32 %175, ptr %18, align 4
  br label %176

176:                                              ; preds = %166, %156
  br label %177

177:                                              ; preds = %176
  %178 = load i32, ptr %17, align 4
  %179 = add nsw i32 %178, -1
  store i32 %179, ptr %17, align 4
  %180 = icmp sgt i32 %179, 0
  br i1 %180, label %141, label %181, !llvm.loop !22

181:                                              ; preds = %177
  br label %182

182:                                              ; preds = %181, %139
  ret void
}