; Function Attrs: nofree norecurse nosync nounwind memory(readwrite, inaccessiblemem: none) uwtable
define hidden void @AnyByteXorLine(ptr nocapture noundef readonly %0, i32 noundef %1, i32 noundef %2, i32 noundef %3, i32 noundef %4, i32 noundef %5, i32 noundef %6, i32 noundef %7, i32 noundef %8, i32 noundef %9, ptr nocapture readnone %10, ptr nocapture noundef readonly %11) #2 {
  %13 = getelementptr inbounds i8, ptr %11, i64 4
  %14 = load i32, ptr %13, align 4
  %15 = getelementptr inbounds i8, ptr %11, i64 8
  %16 = load i32, ptr %15, align 4
  %17 = getelementptr inbounds i8, ptr %0, i64 32
  %18 = load i32, ptr %17, align 8
  %19 = getelementptr inbounds i8, ptr %0, i64 16
  %20 = load ptr, ptr %19, align 8
  %21 = ptrtoint ptr %20 to i64
  %22 = sext i32 %2 to i64
  %23 = sext i32 %18 to i64
  %24 = mul nsw i64 %23, %22
  %25 = sext i32 %1 to i64
  %26 = add nsw i64 %24, %25
  %27 = add nsw i64 %26, %21
  %28 = inttoptr i64 %27 to ptr
  %29 = and i32 %6, 1
  %.not = icmp eq i32 %29, 0
  br i1 %.not, label %30, label %36

30:                                               ; preds = %12
  %31 = and i32 %6, 2
  %.not46 = icmp eq i32 %31, 0
  br i1 %.not46, label %32, label %36

32:                                               ; preds = %30
  %33 = and i32 %6, 4
  %.not47 = icmp eq i32 %33, 0
  %34 = sub nsw i32 0, %18
  %35 = select i1 %.not47, i32 %34, i32 %18
  br label %36

36:                                               ; preds = %32, %30, %12
  %37 = phi i32 [ 1, %12 ], [ %35, %32 ], [ -1, %30 ]
  %38 = and i32 %8, 1
  %.not48 = icmp eq i32 %38, 0
  br i1 %.not48, label %39, label %47

39:                                               ; preds = %36
  %40 = and i32 %8, 2
  %.not49 = icmp eq i32 %40, 0
  br i1 %.not49, label %41, label %47

41:                                               ; preds = %39
  %42 = and i32 %8, 4
  %.not50 = icmp eq i32 %42, 0
  br i1 %.not50, label %43, label %47

43:                                               ; preds = %41
  %44 = and i32 %8, 8
  %.not51 = icmp eq i32 %44, 0
  %45 = sub nsw i32 0, %18
  %46 = select i1 %.not51, i32 0, i32 %45
  br label %47

47:                                               ; preds = %41, %39, %43, %36
  %48 = phi i32 [ 1, %36 ], [ -1, %39 ], [ %46, %43 ], [ %18, %41 ]
  %49 = icmp eq i32 %7, 0
  %50 = xor i32 %14, %3
  %51 = xor i32 %16, -1
  %52 = and i32 %50, %51
  %53 = trunc i32 %52 to i8
  br i1 %49, label %.preheader, label %.preheader52

.preheader52:                                     ; preds = %47
  %54 = sub i32 0, %9
  br label %64

.preheader:                                       ; preds = %47
  %55 = sext i32 %37 to i64
  br label %56

56:                                               ; preds = %.preheader, %56
  %.041 = phi ptr [ %61, %56 ], [ %28, %.preheader ]
  %.0 = phi i32 [ %62, %56 ], [ %4, %.preheader ]
  %57 = load i8, ptr %.041, align 1
  %58 = xor i8 %57, %53
  store i8 %58, ptr %.041, align 1
  %59 = ptrtoint ptr %.041 to i64
  %60 = add nsw i64 %59, %55
  %61 = inttoptr i64 %60 to ptr
  %62 = add nsw i32 %.0, -1
  %63 = icmp sgt i32 %.0, 1
  br i1 %63, label %56, label %.loopexit, !llvm.loop !18

64:                                               ; preds = %.preheader52, %64
  %.043 = phi i32 [ %.144, %64 ], [ %5, %.preheader52 ]
  %.142 = phi ptr [ %.2, %64 ], [ %28, %.preheader52 ]
  %.1 = phi i32 [ %70, %64 ], [ %4, %.preheader52 ]
  %65 = load i8, ptr %.142, align 1
  %66 = xor i8 %65, %53
  store i8 %66, ptr %.142, align 1
  %67 = icmp slt i32 %.043, 0
  %68 = ptrtoint ptr %.142 to i64
  %.144.p = select i1 %67, i32 %7, i32 %54
  %.144 = add i32 %.043, %.144.p
  %69 = select i1 %67, i32 0, i32 %48
  %.2.in.v.v = add nsw i32 %37, %69
  %.2.in.v = sext i32 %.2.in.v.v to i64
  %.2.in = add nsw i64 %68, %.2.in.v
  %.2 = inttoptr i64 %.2.in to ptr
  %70 = add nsw i32 %.1, -1
  %71 = icmp sgt i32 %.1, 1
  br i1 %71, label %64, label %.loopexit, !llvm.loop !19

.loopexit:                                        ; preds = %64, %56
  ret void
}